target datalayout = "e-m:e-p270:32:32-p271:32:32-p272:64:64-i64:64-i128:128-f80:128-n8:16:32:64-S128"
target triple = "x86_64-pc-linux-gnu"

%struct.ec_key_st = type { ptr, ptr, i32, ptr, ptr, ptr, i32, i32, %struct.CRYPTO_REF_COUNT, i32, %struct.crypto_ex_data_st, ptr, ptr, i64 }
%struct.CRYPTO_REF_COUNT = type { i32 }
%struct.crypto_ex_data_st = type { ptr, ptr }
%struct.ec_group_st = type { ptr, ptr, ptr, ptr, i32, i32, i32, i32, ptr, i64, ptr, [6 x i32], ptr, ptr, i32, ptr, ptr, ptr, ptr, i32, %union.anon, ptr, ptr }
%union.anon = type { ptr }
%struct.ec_method_st = type { i32, i32, ptr, ptr, ptr, ptr, ptr, ptr, ptr, ptr, ptr, ptr, ptr, ptr, ptr, ptr, ptr, ptr, ptr, ptr, ptr, ptr, ptr, ptr, ptr, ptr, ptr, ptr, ptr, ptr, ptr, ptr, ptr, ptr, ptr, ptr, ptr, ptr, ptr, ptr, ptr, ptr, ptr, ptr, ptr, ptr, ptr, ptr, ptr, ptr, ptr, ptr, ptr, ptr, ptr, ptr, ptr }

@.str = private unnamed_addr constant [33 x i8] c"../openssl/crypto/ec/ecdh_ossl.c\00", align 1
@__func__.ossl_ecdh_compute_key = private unnamed_addr constant [22 x i8] c"ossl_ecdh_compute_key\00", align 1

; Function Attrs: nounwind uwtable
define i32 @ossl_ecdh_compute_key(ptr noundef %0, ptr noundef %1, ptr noundef %2, ptr noundef %3) #0 {
  %5 = alloca i32, align 4
  %6 = alloca ptr, align 8
  %7 = alloca ptr, align 8
  %8 = alloca ptr, align 8
  %9 = alloca ptr, align 8
  store ptr %0, ptr %6, align 8, !tbaa !3
  store ptr %1, ptr %7, align 8, !tbaa !8
  store ptr %2, ptr %8, align 8, !tbaa !10
  store ptr %3, ptr %9, align 8, !tbaa !12
  %10 = load ptr, ptr %9, align 8, !tbaa !12
  %11 = getelementptr inbounds nuw %struct.ec_key_st, ptr %10, i32 0, i32 3
  %12 = load ptr, ptr %11, align 8, !tbaa !14
  %13 = getelementptr inbounds nuw %struct.ec_group_st, ptr %12, i32 0, i32 0
  %14 = load ptr, ptr %13, align 8, !tbaa !27
  %15 = getelementptr inbounds nuw %struct.ec_method_st, ptr %14, i32 0, i32 47
  %16 = load ptr, ptr %15, align 8, !tbaa !31
  %17 = icmp eq ptr %16, null
  br i1 %17, label %18, label %19

18:                                               ; preds = %4
  call void @ERR_new()
  call void @ERR_set_debug(ptr noundef @.str, i32 noundef 32, ptr noundef @__func__.ossl_ecdh_compute_key)
  call void (i32, i32, ptr, ...) @ERR_set_error(i32 noundef 16, i32 noundef 160, ptr noundef null)
  store i32 0, ptr %5, align 4
  br label %32

19:                                               ; preds = %4
  %20 = load ptr, ptr %9, align 8, !tbaa !12
  %21 = getelementptr inbounds nuw %struct.ec_key_st, ptr %20, i32 0, i32 3
  %22 = load ptr, ptr %21, align 8, !tbaa !14
  %23 = getelementptr inbounds nuw %struct.ec_group_st, ptr %22, i32 0, i32 0
  %24 = load ptr, ptr %23, align 8, !tbaa !27
  %25 = getelementptr inbounds nuw %struct.ec_method_st, ptr %24, i32 0, i32 47
  %26 = load ptr, ptr %25, align 8, !tbaa !31
  %27 = load ptr, ptr %6, align 8, !tbaa !3
  %28 = load ptr, ptr %7, align 8, !tbaa !8
  %29 = load ptr, ptr %8, align 8, !tbaa !10
  %30 = load ptr, ptr %9, align 8, !tbaa !12
  %31 = call i32 %26(ptr noundef %27, ptr noundef %28, ptr noundef %29, ptr noundef %30)
  store i32 %31, ptr %5, align 4
  br label %32

32:                                               ; preds = %19, %18
  %33 = load i32, ptr %5, align 4
  ret i32 %33
}