; Function Attrs: nounwind uwtable
define i32 @ossl_ecdh_compute_key(ptr noundef %0, ptr noundef %1, ptr noundef %2, ptr noundef %3) local_unnamed_addr #0 {
  %5 = getelementptr inbounds nuw i8, ptr %3, i64 24
  %6 = load ptr, ptr %5, align 8, !tbaa !3
  %7 = load ptr, ptr %6, align 8, !tbaa !20
  %8 = getelementptr inbounds nuw i8, ptr %7, i64 368
  %9 = load ptr, ptr %8, align 8, !tbaa !24
  %10 = icmp eq ptr %9, null
  br i1 %10, label %11, label %12

11:                                               ; preds = %4
  tail call void @ERR_new() #3
  tail call void @ERR_set_debug(ptr noundef nonnull @.str, i32 noundef 32, ptr noundef nonnull @__func__.ossl_ecdh_compute_key) #3
  tail call void (i32, i32, ptr, ...) @ERR_set_error(i32 noundef 16, i32 noundef 160, ptr noundef null) #3
  br label %14

12:                                               ; preds = %4
  %13 = tail call i32 %9(ptr noundef %0, ptr noundef %1, ptr noundef %2, ptr noundef nonnull %3) #3
  br label %14

14:                                               ; preds = %12, %11
  %.0 = phi i32 [ 0, %11 ], [ %13, %12 ]
  ret i32 %.0
}